target datalayout = "e-m:e-p270:32:32-p271:32:32-p272:64:64-i64:64-i128:128-f80:128-n8:16:32:64-S128"
target triple = "x86_64-pc-linux-gnu"

%"class.LIEF::MachO::Relocation" = type { %"class.LIEF::Relocation.base", ptr, i8, i32, ptr, ptr }
%"class.LIEF::Relocation.base" = type <{ %"class.LIEF::Object", i64, i8 }>
%"class.LIEF::Object" = type { ptr }
%"class.LIEF::Relocation" = type <{ %"class.LIEF::Object", i64, i8, [7 x i8] }>

; Function Attrs: mustprogress nounwind uwtable
define noundef nonnull align 8 dereferenceable(56) ptr @_ZN4LIEF5MachO10RelocationaSERKS1_(ptr noundef nonnull align 8 dereferenceable(56) %0, ptr noundef nonnull align 8 dereferenceable(56) %1) #0 align 2 {
  %3 = alloca ptr, align 8
  %4 = alloca ptr, align 8
  store ptr %0, ptr %3, align 8, !tbaa !3
  store ptr %1, ptr %4, align 8, !tbaa !3
  %5 = load ptr, ptr %3, align 8
  %6 = load ptr, ptr %4, align 8, !tbaa !3
  %7 = icmp ne ptr %6, %5
  br i1 %7, label %8, label %25

8:                                                ; preds = %2
  %9 = load ptr, ptr %4, align 8, !tbaa !3
  %10 = getelementptr inbounds nuw %"class.LIEF::Relocation", ptr %9, i32 0, i32 1
  %11 = load i64, ptr %10, align 8, !tbaa !27
  %12 = getelementptr inbounds nuw %"class.LIEF::Relocation", ptr %5, i32 0, i32 1
  store i64 %11, ptr %12, align 8, !tbaa !27
  %13 = load ptr, ptr %4, align 8, !tbaa !3
  %14 = getelementptr inbounds nuw %"class.LIEF::Relocation", ptr %13, i32 0, i32 2
  %15 = load i8, ptr %14, align 8, !tbaa !28
  %16 = getelementptr inbounds nuw %"class.LIEF::Relocation", ptr %5, i32 0, i32 2
  store i8 %15, ptr %16, align 8, !tbaa !28
  %17 = load ptr, ptr %4, align 8, !tbaa !3
  %18 = getelementptr inbounds nuw %"class.LIEF::MachO::Relocation", ptr %17, i32 0, i32 2
  %19 = load i8, ptr %18, align 8, !tbaa !19
  %20 = getelementptr inbounds nuw %"class.LIEF::MachO::Relocation", ptr %5, i32 0, i32 2
  store i8 %19, ptr %20, align 8, !tbaa !19
  %21 = load ptr, ptr %4, align 8, !tbaa !3
  %22 = getelementptr inbounds nuw %"class.LIEF::MachO::Relocation", ptr %21, i32 0, i32 3
  %23 = load i32, ptr %22, align 4, !tbaa !20
  %24 = getelementptr inbounds nuw %"class.LIEF::MachO::Relocation", ptr %5, i32 0, i32 3
  store i32 %23, ptr %24, align 4, !tbaa !20
  br label %25

25:                                               ; preds = %8, %2
  ret ptr %5
}