; Function Attrs: mustprogress nofree norecurse nosync nounwind willreturn memory(argmem: readwrite) uwtable
define noundef nonnull align 8 dereferenceable(56) ptr @_ZN4LIEF5MachO10RelocationaSERKS1_(ptr noundef nonnull returned writeonly align 8 dereferenceable(56) %0, ptr noundef nonnull readonly align 8 dereferenceable(56) %1) local_unnamed_addr #1 align 2 {
  %.not = icmp eq ptr %1, %0
  br i1 %.not, label %16, label %3

3:                                                ; preds = %2
  %4 = getelementptr inbounds nuw i8, ptr %1, i64 8
  %5 = load i64, ptr %4, align 8, !tbaa !20
  %6 = getelementptr inbounds nuw i8, ptr %0, i64 8
  store i64 %5, ptr %6, align 8, !tbaa !20
  %7 = getelementptr inbounds nuw i8, ptr %1, i64 16
  %8 = load i8, ptr %7, align 8, !tbaa !19
  %9 = getelementptr inbounds nuw i8, ptr %0, i64 16
  store i8 %8, ptr %9, align 8, !tbaa !19
  %10 = getelementptr inbounds nuw i8, ptr %1, i64 32
  %11 = load i8, ptr %10, align 8, !tbaa !17
  %12 = getelementptr inbounds nuw i8, ptr %0, i64 32
  store i8 %11, ptr %12, align 8, !tbaa !17
  %13 = getelementptr inbounds nuw i8, ptr %1, i64 36
  %14 = load i32, ptr %13, align 4, !tbaa !18
  %15 = getelementptr inbounds nuw i8, ptr %0, i64 36
  store i32 %14, ptr %15, align 4, !tbaa !18
  br label %16

16:                                               ; preds = %3, %2
  ret ptr %0
}